target datalayout = "e-m:e-p270:32:32-p271:32:32-p272:64:64-i64:64-i128:128-f80:128-n8:16:32:64-S128"
target triple = "x86_64-pc-linux-gnu"

%struct.AVChannelLayout = type { i32, i32, %union.anon.1, ptr }
%union.anon.1 = type { i64 }
%struct.AVRational = type { i32, i32 }
%struct.AVFilterContext = type { ptr, ptr, ptr, ptr, ptr, i32, ptr, ptr, i32, ptr, ptr, i32, i32, ptr, ptr, ptr, ptr, i32, ptr, i32, i32 }
%struct.ChromaShiftContext = type { ptr, i32, i32, i32, i32, i32, i32, i32, i32, i32, i32, i32, i32, i32, i32, i32, [4 x i32], [4 x i32], [4 x i32], ptr, i32, [2 x ptr] }
%struct.AVFrame = type { [8 x ptr], [8 x i32], ptr, i32, i32, i32, i32, i32, %struct.AVRational, i64, i64, %struct.AVRational, i32, ptr, i32, i32, [8 x ptr], ptr, i32, ptr, i32, i32, i32, i32, i32, i32, i32, i64, ptr, i32, ptr, ptr, i64, i64, i64, i64, ptr, %struct.AVChannelLayout, i64 }

; Function Attrs: nounwind uwtable
define internal i32 @wrap_slice8(ptr noundef %0, ptr noundef %1, i32 noundef %2, i32 noundef %3) #1 {
  %5 = alloca ptr, align 8
  %6 = alloca ptr, align 8
  %7 = alloca i32, align 4
  %8 = alloca i32, align 4
  %9 = alloca ptr, align 8
  %10 = alloca ptr, align 8
  %11 = alloca ptr, align 8
  %12 = alloca i32, align 4
  %13 = alloca i32, align 4
  %14 = alloca i32, align 4
  %15 = alloca i32, align 4
  %16 = alloca i32, align 4
  %17 = alloca i32, align 4
  %18 = alloca i32, align 4
  %19 = alloca i32, align 4
  %20 = alloca i32, align 4
  %21 = alloca i32, align 4
  %22 = alloca i32, align 4
  %23 = alloca i32, align 4
  %24 = alloca ptr, align 8
  %25 = alloca ptr, align 8
  %26 = alloca ptr, align 8
  %27 = alloca ptr, align 8
  %28 = alloca i32, align 4
  %29 = alloca i32, align 4
  %30 = alloca i32, align 4
  %31 = alloca i32, align 4
  %32 = alloca i32, align 4
  %33 = alloca i32, align 4
  %34 = alloca i32, align 4
  store ptr %0, ptr %5, align 8, !tbaa !23
  store ptr %1, ptr %6, align 8, !tbaa !45
  store i32 %2, ptr %7, align 4, !tbaa !43
  store i32 %3, ptr %8, align 4, !tbaa !43
  call void @llvm.lifetime.start.p0(i64 8, ptr %9) #6
  %35 = load ptr, ptr %5, align 8, !tbaa !23
  %36 = getelementptr inbounds nuw %struct.AVFilterContext, ptr %35, i32 0, i32 9
  %37 = load ptr, ptr %36, align 8, !tbaa !34
  store ptr %37, ptr %9, align 8, !tbaa !35
  call void @llvm.lifetime.start.p0(i64 8, ptr %10) #6
  %38 = load ptr, ptr %9, align 8, !tbaa !35
  %39 = getelementptr inbounds nuw %struct.ChromaShiftContext, ptr %38, i32 0, i32 19
  %40 = load ptr, ptr %39, align 8, !tbaa !39
  store ptr %40, ptr %10, align 8, !tbaa !9
  call void @llvm.lifetime.start.p0(i64 8, ptr %11) #6
  %41 = load ptr, ptr %6, align 8, !tbaa !45
  store ptr %41, ptr %11, align 8, !tbaa !9
  call void @llvm.lifetime.start.p0(i64 4, ptr %12) #6
  %42 = load ptr, ptr %10, align 8, !tbaa !9
  %43 = getelementptr inbounds nuw %struct.AVFrame, ptr %42, i32 0, i32 1
  %44 = getelementptr inbounds [8 x i32], ptr %43, i64 0, i64 1
  %45 = load i32, ptr %44, align 4, !tbaa !43
  %46 = sdiv i32 %45, 1
  store i32 %46, ptr %12, align 4, !tbaa !43
  call void @llvm.lifetime.start.p0(i64 4, ptr %13) #6
  %47 = load ptr, ptr %10, align 8, !tbaa !9
  %48 = getelementptr inbounds nuw %struct.AVFrame, ptr %47, i32 0, i32 1
  %49 = getelementptr inbounds [8 x i32], ptr %48, i64 0, i64 2
  %50 = load i32, ptr %49, align 8, !tbaa !43
  %51 = sdiv i32 %50, 1
  store i32 %51, ptr %13, align 4, !tbaa !43
  call void @llvm.lifetime.start.p0(i64 4, ptr %14) #6
  %52 = load ptr, ptr %11, align 8, !tbaa !9
  %53 = getelementptr inbounds nuw %struct.AVFrame, ptr %52, i32 0, i32 1
  %54 = getelementptr inbounds [8 x i32], ptr %53, i64 0, i64 1
  %55 = load i32, ptr %54, align 4, !tbaa !43
  %56 = sdiv i32 %55, 1
  store i32 %56, ptr %14, align 4, !tbaa !43
  call void @llvm.lifetime.start.p0(i64 4, ptr %15) #6
  %57 = load ptr, ptr %11, align 8, !tbaa !9
  %58 = getelementptr inbounds nuw %struct.AVFrame, ptr %57, i32 0, i32 1
  %59 = getelementptr inbounds [8 x i32], ptr %58, i64 0, i64 2
  %60 = load i32, ptr %59, align 8, !tbaa !43
  %61 = sdiv i32 %60, 1
  store i32 %61, ptr %15, align 4, !tbaa !43
  call void @llvm.lifetime.start.p0(i64 4, ptr %16) #6
  %62 = load ptr, ptr %9, align 8, !tbaa !35
  %63 = getelementptr inbounds nuw %struct.ChromaShiftContext, ptr %62, i32 0, i32 1
  %64 = load i32, ptr %63, align 8, !tbaa !87
  store i32 %64, ptr %16, align 4, !tbaa !43
  call void @llvm.lifetime.start.p0(i64 4, ptr %17) #6
  %65 = load ptr, ptr %9, align 8, !tbaa !35
  %66 = getelementptr inbounds nuw %struct.ChromaShiftContext, ptr %65, i32 0, i32 2
  %67 = load i32, ptr %66, align 4, !tbaa !88
  store i32 %67, ptr %17, align 4, !tbaa !43
  call void @llvm.lifetime.start.p0(i64 4, ptr %18) #6
  %68 = load ptr, ptr %9, align 8, !tbaa !35
  %69 = getelementptr inbounds nuw %struct.ChromaShiftContext, ptr %68, i32 0, i32 3
  %70 = load i32, ptr %69, align 8, !tbaa !89
  store i32 %70, ptr %18, align 4, !tbaa !43
  call void @llvm.lifetime.start.p0(i64 4, ptr %19) #6
  %71 = load ptr, ptr %9, align 8, !tbaa !35
  %72 = getelementptr inbounds nuw %struct.ChromaShiftContext, ptr %71, i32 0, i32 4
  %73 = load i32, ptr %72, align 4, !tbaa !90
  store i32 %73, ptr %19, align 4, !tbaa !43
  call void @llvm.lifetime.start.p0(i64 4, ptr %20) #6
  %74 = load ptr, ptr %9, align 8, !tbaa !35
  %75 = getelementptr inbounds nuw %struct.ChromaShiftContext, ptr %74, i32 0, i32 16
  %76 = getelementptr inbounds [4 x i32], ptr %75, i64 0, i64 1
  %77 = load i32, ptr %76, align 4, !tbaa !43
  store i32 %77, ptr %20, align 4, !tbaa !43
  call void @llvm.lifetime.start.p0(i64 4, ptr %21) #6
  %78 = load ptr, ptr %9, align 8, !tbaa !35
  %79 = getelementptr inbounds nuw %struct.ChromaShiftContext, ptr %78, i32 0, i32 17
  %80 = getelementptr inbounds [4 x i32], ptr %79, i64 0, i64 1
  %81 = load i32, ptr %80, align 4, !tbaa !43
  store i32 %81, ptr %21, align 4, !tbaa !43
  call void @llvm.lifetime.start.p0(i64 4, ptr %22) #6
  %82 = load i32, ptr %20, align 4, !tbaa !43
  %83 = load i32, ptr %7, align 4, !tbaa !43
  %84 = mul nsw i32 %82, %83
  %85 = load i32, ptr %8, align 4, !tbaa !43
  %86 = sdiv i32 %84, %85
  store i32 %86, ptr %22, align 4, !tbaa !43
  call void @llvm.lifetime.start.p0(i64 4, ptr %23) #6
  %87 = load i32, ptr %20, align 4, !tbaa !43
  %88 = load i32, ptr %7, align 4, !tbaa !43
  %89 = add nsw i32 %88, 1
  %90 = mul nsw i32 %87, %89
  %91 = load i32, ptr %8, align 4, !tbaa !43
  %92 = sdiv i32 %90, %91
  store i32 %92, ptr %23, align 4, !tbaa !43
  call void @llvm.lifetime.start.p0(i64 8, ptr %24) #6
  %93 = load ptr, ptr %10, align 8, !tbaa !9
  %94 = getelementptr inbounds nuw %struct.AVFrame, ptr %93, i32 0, i32 0
  %95 = getelementptr inbounds [8 x ptr], ptr %94, i64 0, i64 1
  %96 = load ptr, ptr %95, align 8, !tbaa !42
  store ptr %96, ptr %24, align 8, !tbaa !42
  call void @llvm.lifetime.start.p0(i64 8, ptr %25) #6
  %97 = load ptr, ptr %10, align 8, !tbaa !9
  %98 = getelementptr inbounds nuw %struct.AVFrame, ptr %97, i32 0, i32 0
  %99 = getelementptr inbounds [8 x ptr], ptr %98, i64 0, i64 2
  %100 = load ptr, ptr %99, align 8, !tbaa !42
  store ptr %100, ptr %25, align 8, !tbaa !42
  call void @llvm.lifetime.start.p0(i64 8, ptr %26) #6
  %101 = load ptr, ptr %11, align 8, !tbaa !9
  %102 = getelementptr inbounds nuw %struct.AVFrame, ptr %101, i32 0, i32 0
  %103 = getelementptr inbounds [8 x ptr], ptr %102, i64 0, i64 1
  %104 = load ptr, ptr %103, align 8, !tbaa !42
  %105 = load i32, ptr %22, align 4, !tbaa !43
  %106 = load i32, ptr %14, align 4, !tbaa !43
  %107 = mul nsw i32 %105, %106
  %108 = sext i32 %107 to i64
  %109 = getelementptr inbounds i8, ptr %104, i64 %108
  store ptr %109, ptr %26, align 8, !tbaa !42
  call void @llvm.lifetime.start.p0(i64 8, ptr %27) #6
  %110 = load ptr, ptr %11, align 8, !tbaa !9
  %111 = getelementptr inbounds nuw %struct.AVFrame, ptr %110, i32 0, i32 0
  %112 = getelementptr inbounds [8 x ptr], ptr %111, i64 0, i64 2
  %113 = load ptr, ptr %112, align 8, !tbaa !42
  %114 = load i32, ptr %22, align 4, !tbaa !43
  %115 = load i32, ptr %15, align 4, !tbaa !43
  %116 = mul nsw i32 %114, %115
  %117 = sext i32 %116 to i64
  %118 = getelementptr inbounds i8, ptr %113, i64 %117
  store ptr %118, ptr %27, align 8, !tbaa !42
  call void @llvm.lifetime.start.p0(i64 4, ptr %28) #6
  %119 = load i32, ptr %22, align 4, !tbaa !43
  store i32 %119, ptr %28, align 4, !tbaa !43
  br label %120

120:                                              ; preds = %218, %4
  %121 = load i32, ptr %28, align 4, !tbaa !43
  %122 = load i32, ptr %23, align 4, !tbaa !43
  %123 = icmp slt i32 %121, %122
  br i1 %123, label %125, label %124

124:                                              ; preds = %120
  store i32 2, ptr %29, align 4
  call void @llvm.lifetime.end.p0(i64 4, ptr %28) #6
  br label %221

125:                                              ; preds = %120
  call void @llvm.lifetime.start.p0(i64 4, ptr %30) #6
  %126 = load i32, ptr %28, align 4, !tbaa !43
  %127 = load i32, ptr %17, align 4, !tbaa !43
  %128 = sub nsw i32 %126, %127
  %129 = load i32, ptr %20, align 4, !tbaa !43
  %130 = srem i32 %128, %129
  store i32 %130, ptr %30, align 4, !tbaa !43
  call void @llvm.lifetime.start.p0(i64 4, ptr %31) #6
  %131 = load i32, ptr %28, align 4, !tbaa !43
  %132 = load i32, ptr %19, align 4, !tbaa !43
  %133 = sub nsw i32 %131, %132
  %134 = load i32, ptr %20, align 4, !tbaa !43
  %135 = srem i32 %133, %134
  store i32 %135, ptr %31, align 4, !tbaa !43
  %136 = load i32, ptr %30, align 4, !tbaa !43
  %137 = icmp slt i32 %136, 0
  br i1 %137, label %138, label %142

138:                                              ; preds = %125
  %139 = load i32, ptr %20, align 4, !tbaa !43
  %140 = load i32, ptr %30, align 4, !tbaa !43
  %141 = add nsw i32 %140, %139
  store i32 %141, ptr %30, align 4, !tbaa !43
  br label %142

142:                                              ; preds = %138, %125
  %143 = load i32, ptr %31, align 4, !tbaa !43
  %144 = icmp slt i32 %143, 0
  br i1 %144, label %145, label %149

145:                                              ; preds = %142
  %146 = load i32, ptr %20, align 4, !tbaa !43
  %147 = load i32, ptr %31, align 4, !tbaa !43
  %148 = add nsw i32 %147, %146
  store i32 %148, ptr %31, align 4, !tbaa !43
  br label %149

149:                                              ; preds = %145, %142
  call void @llvm.lifetime.start.p0(i64 4, ptr %32) #6
  store i32 0, ptr %32, align 4, !tbaa !43
  br label %150

150:                                              ; preds = %206, %149
  %151 = load i32, ptr %32, align 4, !tbaa !43
  %152 = load i32, ptr %21, align 4, !tbaa !43
  %153 = icmp slt i32 %151, %152
  br i1 %153, label %155, label %154

154:                                              ; preds = %150
  store i32 5, ptr %29, align 4
  call void @llvm.lifetime.end.p0(i64 4, ptr %32) #6
  br label %209

155:                                              ; preds = %150
  call void @llvm.lifetime.start.p0(i64 4, ptr %33) #6
  %156 = load i32, ptr %32, align 4, !tbaa !43
  %157 = load i32, ptr %16, align 4, !tbaa !43
  %158 = sub nsw i32 %156, %157
  %159 = load i32, ptr %21, align 4, !tbaa !43
  %160 = srem i32 %158, %159
  store i32 %160, ptr %33, align 4, !tbaa !43
  call void @llvm.lifetime.start.p0(i64 4, ptr %34) #6
  %161 = load i32, ptr %32, align 4, !tbaa !43
  %162 = load i32, ptr %18, align 4, !tbaa !43
  %163 = sub nsw i32 %161, %162
  %164 = load i32, ptr %21, align 4, !tbaa !43
  %165 = srem i32 %163, %164
  store i32 %165, ptr %34, align 4, !tbaa !43
  %166 = load i32, ptr %33, align 4, !tbaa !43
  %167 = icmp slt i32 %166, 0
  br i1 %167, label %168, label %172

168:                                              ; preds = %155
  %169 = load i32, ptr %21, align 4, !tbaa !43
  %170 = load i32, ptr %33, align 4, !tbaa !43
  %171 = add nsw i32 %170, %169
  store i32 %171, ptr %33, align 4, !tbaa !43
  br label %172

172:                                              ; preds = %168, %155
  %173 = load i32, ptr %34, align 4, !tbaa !43
  %174 = icmp slt i32 %173, 0
  br i1 %174, label %175, label %179

175:                                              ; preds = %172
  %176 = load i32, ptr %21, align 4, !tbaa !43
  %177 = load i32, ptr %34, align 4, !tbaa !43
  %178 = add nsw i32 %177, %176
  store i32 %178, ptr %34, align 4, !tbaa !43
  br label %179

179:                                              ; preds = %175, %172
  %180 = load ptr, ptr %24, align 8, !tbaa !42
  %181 = load i32, ptr %33, align 4, !tbaa !43
  %182 = load i32, ptr %30, align 4, !tbaa !43
  %183 = load i32, ptr %12, align 4, !tbaa !43
  %184 = mul nsw i32 %182, %183
  %185 = add nsw i32 %181, %184
  %186 = sext i32 %185 to i64
  %187 = getelementptr inbounds i8, ptr %180, i64 %186
  %188 = load i8, ptr %187, align 1, !tbaa !77
  %189 = load ptr, ptr %26, align 8, !tbaa !42
  %190 = load i32, ptr %32, align 4, !tbaa !43
  %191 = sext i32 %190 to i64
  %192 = getelementptr inbounds i8, ptr %189, i64 %191
  store i8 %188, ptr %192, align 1, !tbaa !77
  %193 = load ptr, ptr %25, align 8, !tbaa !42
  %194 = load i32, ptr %34, align 4, !tbaa !43
  %195 = load i32, ptr %31, align 4, !tbaa !43
  %196 = load i32, ptr %13, align 4, !tbaa !43
  %197 = mul nsw i32 %195, %196
  %198 = add nsw i32 %194, %197
  %199 = sext i32 %198 to i64
  %200 = getelementptr inbounds i8, ptr %193, i64 %199
  %201 = load i8, ptr %200, align 1, !tbaa !77
  %202 = load ptr, ptr %27, align 8, !tbaa !42
  %203 = load i32, ptr %32, align 4, !tbaa !43
  %204 = sext i32 %203 to i64
  %205 = getelementptr inbounds i8, ptr %202, i64 %204
  store i8 %201, ptr %205, align 1, !tbaa !77
  call void @llvm.lifetime.end.p0(i64 4, ptr %34) #6
  call void @llvm.lifetime.end.p0(i64 4, ptr %33) #6
  br label %206

206:                                              ; preds = %179
  %207 = load i32, ptr %32, align 4, !tbaa !43
  %208 = add nsw i32 %207, 1
  store i32 %208, ptr %32, align 4, !tbaa !43
  br label %150, !llvm.loop !93

209:                                              ; preds = %154
  %210 = load i32, ptr %14, align 4, !tbaa !43
  %211 = load ptr, ptr %26, align 8, !tbaa !42
  %212 = sext i32 %210 to i64
  %213 = getelementptr inbounds i8, ptr %211, i64 %212
  store ptr %213, ptr %26, align 8, !tbaa !42
  %214 = load i32, ptr %15, align 4, !tbaa !43
  %215 = load ptr, ptr %27, align 8, !tbaa !42
  %216 = sext i32 %214 to i64
  %217 = getelementptr inbounds i8, ptr %215, i64 %216
  store ptr %217, ptr %27, align 8, !tbaa !42
  call void @llvm.lifetime.end.p0(i64 4, ptr %31) #6
  call void @llvm.lifetime.end.p0(i64 4, ptr %30) #6
  br label %218

218:                                              ; preds = %209
  %219 = load i32, ptr %28, align 4, !tbaa !43
  %220 = add nsw i32 %219, 1
  store i32 %220, ptr %28, align 4, !tbaa !43
  br label %120, !llvm.loop !94

221:                                              ; preds = %124
  store i32 1, ptr %29, align 4
  call void @llvm.lifetime.end.p0(i64 8, ptr %27) #6
  call void @llvm.lifetime.end.p0(i64 8, ptr %26) #6
  call void @llvm.lifetime.end.p0(i64 8, ptr %25) #6
  call void @llvm.lifetime.end.p0(i64 8, ptr %24) #6
  call void @llvm.lifetime.end.p0(i64 4, ptr %23) #6
  call void @llvm.lifetime.end.p0(i64 4, ptr %22) #6
  call void @llvm.lifetime.end.p0(i64 4, ptr %21) #6
  call void @llvm.lifetime.end.p0(i64 4, ptr %20) #6
  call void @llvm.lifetime.end.p0(i64 4, ptr %19) #6
  call void @llvm.lifetime.end.p0(i64 4, ptr %18) #6
  call void @llvm.lifetime.end.p0(i64 4, ptr %17) #6
  call void @llvm.lifetime.end.p0(i64 4, ptr %16) #6
  call void @llvm.lifetime.end.p0(i64 4, ptr %15) #6
  call void @llvm.lifetime.end.p0(i64 4, ptr %14) #6
  call void @llvm.lifetime.end.p0(i64 4, ptr %13) #6
  call void @llvm.lifetime.end.p0(i64 4, ptr %12) #6
  call void @llvm.lifetime.end.p0(i64 8, ptr %11) #6
  call void @llvm.lifetime.end.p0(i64 8, ptr %10) #6
  call void @llvm.lifetime.end.p0(i64 8, ptr %9) #6
  ret i32 0
}