; Function Attrs: nofree norecurse nosync nounwind memory(readwrite, inaccessiblemem: none) uwtable
define internal noundef i32 @wrap_slice8(ptr noundef readonly captures(none) %0, ptr noundef readonly captures(none) %1, i32 noundef %2, i32 noundef %3) #4 {
  %5 = getelementptr inbounds nuw i8, ptr %0, i64 72
  %6 = load ptr, ptr %5, align 8, !tbaa !33
  %7 = getelementptr inbounds nuw i8, ptr %6, i64 120
  %8 = load ptr, ptr %7, align 8, !tbaa !36
  %9 = getelementptr inbounds nuw i8, ptr %8, i64 68
  %10 = load i32, ptr %9, align 4, !tbaa !40
  %11 = getelementptr inbounds nuw i8, ptr %8, i64 72
  %12 = load i32, ptr %11, align 8, !tbaa !40
  %13 = getelementptr inbounds nuw i8, ptr %6, i64 8
  %14 = load i32, ptr %13, align 8, !tbaa !80
  %15 = getelementptr inbounds nuw i8, ptr %6, i64 12
  %16 = load i32, ptr %15, align 4, !tbaa !81
  %17 = getelementptr inbounds nuw i8, ptr %6, i64 16
  %18 = load i32, ptr %17, align 8, !tbaa !82
  %19 = getelementptr inbounds nuw i8, ptr %6, i64 20
  %20 = load i32, ptr %19, align 4, !tbaa !83
  %21 = getelementptr inbounds nuw i8, ptr %6, i64 72
  %22 = load i32, ptr %21, align 4, !tbaa !40
  %23 = getelementptr inbounds nuw i8, ptr %6, i64 88
  %24 = load i32, ptr %23, align 4, !tbaa !40
  %25 = mul nsw i32 %22, %2
  %26 = sdiv i32 %25, %3
  %27 = add nsw i32 %2, 1
  %28 = mul nsw i32 %22, %27
  %29 = sdiv i32 %28, %3
  %30 = getelementptr inbounds nuw i8, ptr %8, i64 8
  %31 = load ptr, ptr %30, align 8, !tbaa !39
  %32 = getelementptr inbounds nuw i8, ptr %8, i64 16
  %33 = load ptr, ptr %32, align 8, !tbaa !39
  %34 = icmp slt i32 %26, %29
  br i1 %34, label %.lr.ph94, label %._crit_edge95

.lr.ph94:                                         ; preds = %4
  %35 = getelementptr inbounds nuw i8, ptr %1, i64 72
  %36 = load i32, ptr %35, align 8, !tbaa !40
  %37 = getelementptr inbounds nuw i8, ptr %1, i64 68
  %38 = load i32, ptr %37, align 4, !tbaa !40
  %39 = icmp sgt i32 %24, 0
  %40 = sext i32 %38 to i64
  %41 = sext i32 %36 to i64
  br i1 %39, label %.lr.ph.us.preheader, label %._crit_edge95

.lr.ph.us.preheader:                              ; preds = %.lr.ph94
  %42 = getelementptr inbounds nuw i8, ptr %1, i64 8
  %43 = load ptr, ptr %42, align 8, !tbaa !39
  %44 = mul nsw i32 %26, %38
  %45 = sext i32 %44 to i64
  %46 = getelementptr inbounds i8, ptr %43, i64 %45
  %47 = getelementptr inbounds nuw i8, ptr %1, i64 16
  %48 = load ptr, ptr %47, align 8, !tbaa !39
  %49 = mul nsw i32 %26, %36
  %50 = sext i32 %49 to i64
  %51 = getelementptr inbounds i8, ptr %48, i64 %50
  %wide.trip.count = zext nneg i32 %24 to i64
  br label %.lr.ph.us

.lr.ph.us:                                        ; preds = %.lr.ph.us.preheader, %._crit_edge.us
  %.07792.us = phi i32 [ %85, %._crit_edge.us ], [ %26, %.lr.ph.us.preheader ]
  %.07891.us = phi ptr [ %84, %._crit_edge.us ], [ %51, %.lr.ph.us.preheader ]
  %.07990.us = phi ptr [ %83, %._crit_edge.us ], [ %46, %.lr.ph.us.preheader ]
  %52 = sub nsw i32 %.07792.us, %16
  %53 = srem i32 %52, %22
  %54 = sub nsw i32 %.07792.us, %20
  %55 = srem i32 %54, %22
  %56 = icmp slt i32 %53, 0
  %57 = select i1 %56, i32 %22, i32 0
  %spec.select.us = add nsw i32 %57, %53
  %58 = icmp slt i32 %55, 0
  %59 = select i1 %58, i32 %22, i32 0
  %.075.us = add nsw i32 %59, %55
  %60 = mul nsw i32 %spec.select.us, %10
  %61 = mul nsw i32 %.075.us, %12
  br label %62

62:                                               ; preds = %.lr.ph.us, %62
  %indvars.iv = phi i64 [ 0, %.lr.ph.us ], [ %indvars.iv.next, %62 ]
  %63 = trunc i64 %indvars.iv to i32
  %64 = sub i32 %63, %14
  %65 = srem i32 %64, %24
  %66 = trunc i64 %indvars.iv to i32
  %67 = sub i32 %66, %18
  %68 = srem i32 %67, %24
  %69 = icmp slt i32 %65, 0
  %70 = select i1 %69, i32 %24, i32 0
  %71 = icmp slt i32 %68, 0
  %72 = select i1 %71, i32 %24, i32 0
  %spec.select88.us = add i32 %65, %60
  %73 = add i32 %spec.select88.us, %70
  %74 = sext i32 %73 to i64
  %75 = getelementptr inbounds i8, ptr %31, i64 %74
  %76 = load i8, ptr %75, align 1, !tbaa !70
  %77 = getelementptr inbounds nuw i8, ptr %.07990.us, i64 %indvars.iv
  store i8 %76, ptr %77, align 1, !tbaa !70
  %.0.us = add i32 %68, %61
  %78 = add i32 %.0.us, %72
  %79 = sext i32 %78 to i64
  %80 = getelementptr inbounds i8, ptr %33, i64 %79
  %81 = load i8, ptr %80, align 1, !tbaa !70
  %82 = getelementptr inbounds nuw i8, ptr %.07891.us, i64 %indvars.iv
  store i8 %81, ptr %82, align 1, !tbaa !70
  %indvars.iv.next = add nuw nsw i64 %indvars.iv, 1
  %exitcond.not = icmp eq i64 %indvars.iv.next, %wide.trip.count
  br i1 %exitcond.not, label %._crit_edge.us, label %62, !llvm.loop !86

._crit_edge.us:                                   ; preds = %62
  %83 = getelementptr inbounds i8, ptr %.07990.us, i64 %40
  %84 = getelementptr inbounds i8, ptr %.07891.us, i64 %41
  %85 = add nsw i32 %.07792.us, 1
  %exitcond98.not = icmp eq i32 %85, %29
  br i1 %exitcond98.not, label %._crit_edge95, label %.lr.ph.us, !llvm.loop !87

._crit_edge95:                                    ; preds = %._crit_edge.us, %.lr.ph94, %4
  ret i32 0
}